target datalayout = "e-m:e-p270:32:32-p271:32:32-p272:64:64-i64:64-i128:128-f80:128-n8:16:32:64-S128"
target triple = "x86_64-pc-linux-gnu"

%struct.anon = type { i64, ptr }
%struct.AVOption = type { ptr, ptr, i32, i32, %union.anon, double, double, i32, ptr }
%union.anon = type { i64 }

; Function Attrs: nounwind uwtable
define internal void @opt_free_elem(i32 noundef %0, ptr noundef %1) #0 {
  %3 = alloca i32, align 4
  %4 = alloca ptr, align 8
  store i32 %0, ptr %3, align 4, !tbaa !20
  store ptr %1, ptr %4, align 8, !tbaa !4
  %5 = load i32, ptr %3, align 4, !tbaa !20
  %6 = and i32 %5, -65537
  switch i32 %6, label %13 [
    i32 6, label %7
    i32 8, label %7
    i32 9, label %9
    i32 19, label %11
  ]

7:                                                ; preds = %2, %2
  %8 = load ptr, ptr %4, align 8, !tbaa !4
  call void @av_freep(ptr noundef %8)
  br label %14

9:                                                ; preds = %2
  %10 = load ptr, ptr %4, align 8, !tbaa !4
  call void @av_dict_free(ptr noundef %10)
  br label %14

11:                                               ; preds = %2
  %12 = load ptr, ptr %4, align 8, !tbaa !4
  call void @av_channel_layout_uninit(ptr noundef %12)
  br label %14

13:                                               ; preds = %2
  br label %14

14:                                               ; preds = %13, %11, %9, %7
  ret void
}

; Function Attrs: nounwind uwtable
define internal ptr @opt_array_pelem(ptr noundef %0, ptr noundef %1, i32 noundef %2) #0 {
  %4 = alloca ptr, align 8
  %5 = alloca ptr, align 8
  %6 = alloca i32, align 4
  store ptr %0, ptr %4, align 8, !tbaa !8
  store ptr %1, ptr %5, align 8, !tbaa !4
  store i32 %2, ptr %6, align 4, !tbaa !20
  %7 = load ptr, ptr %5, align 8, !tbaa !4
  %8 = load i32, ptr %6, align 4, !tbaa !20
  %9 = zext i32 %8 to i64
  %10 = load ptr, ptr %4, align 8, !tbaa !8
  %11 = getelementptr inbounds nuw %struct.AVOption, ptr %10, i32 0, i32 3
  %12 = load i32, ptr %11, align 4, !tbaa !21
  %13 = and i32 %12, -65537
  %14 = zext i32 %13 to i64
  %15 = getelementptr inbounds nuw [21 x %struct.anon], ptr @opt_type_desc, i64 0, i64 %14
  %16 = getelementptr inbounds nuw %struct.anon, ptr %15, i32 0, i32 0
  %17 = load i64, ptr %16, align 16, !tbaa !38
  %18 = mul i64 %9, %17
  %19 = getelementptr inbounds nuw i8, ptr %7, i64 %18
  ret ptr %19
}

; Function Attrs: nounwind uwtable
define internal void @opt_free_array(ptr noundef %0, ptr noundef %1, ptr noundef %2) #0 {
  %4 = alloca ptr, align 8
  %5 = alloca ptr, align 8
  %6 = alloca ptr, align 8
  %7 = alloca i32, align 4
  store ptr %0, ptr %4, align 8, !tbaa !8
  store ptr %1, ptr %5, align 8, !tbaa !4
  store ptr %2, ptr %6, align 8, !tbaa !30
  call void @llvm.lifetime.start.p0(i64 4, ptr %7) #11
  store i32 0, ptr %7, align 4, !tbaa !20
  br label %8

8:                                                ; preds = %23, %3
  %9 = load i32, ptr %7, align 4, !tbaa !20
  %10 = load ptr, ptr %6, align 8, !tbaa !30
  %11 = load i32, ptr %10, align 4, !tbaa !20
  %12 = icmp ult i32 %9, %11
  br i1 %12, label %14, label %13

13:                                               ; preds = %8
  call void @llvm.lifetime.end.p0(i64 4, ptr %7) #11
  br label %26

14:                                               ; preds = %8
  %15 = load ptr, ptr %4, align 8, !tbaa !8
  %16 = getelementptr inbounds nuw %struct.AVOption, ptr %15, i32 0, i32 3
  %17 = load i32, ptr %16, align 4, !tbaa !21
  %18 = load ptr, ptr %4, align 8, !tbaa !8
  %19 = load ptr, ptr %5, align 8, !tbaa !4
  %20 = load ptr, ptr %19, align 8, !tbaa !4
  %21 = load i32, ptr %7, align 4, !tbaa !20
  %22 = call ptr @opt_array_pelem(ptr noundef %18, ptr noundef %20, i32 noundef %21)
  call void @opt_free_elem(i32 noundef %17, ptr noundef %22)
  br label %23

23:                                               ; preds = %14
  %24 = load i32, ptr %7, align 4, !tbaa !20
  %25 = add i32 %24, 1
  store i32 %25, ptr %7, align 4, !tbaa !20
  br label %8, !llvm.loop !103

26:                                               ; preds = %13
  %27 = load ptr, ptr %5, align 8, !tbaa !4
  call void @av_freep(ptr noundef %27)
  %28 = load ptr, ptr %6, align 8, !tbaa !30
  store i32 0, ptr %28, align 4, !tbaa !20
  ret void
}