; Function Attrs: nounwind uwtable
define internal fastcc void @opt_free_array(ptr noundef readonly captures(none) %0, ptr noundef %1, ptr noundef captures(none) %2) unnamed_addr #2 {
  %4 = load i32, ptr %2, align 4, !tbaa !26
  %.not = icmp eq i32 %4, 0
  br i1 %.not, label %._crit_edge, label %.lr.ph

.lr.ph:                                           ; preds = %3
  %5 = getelementptr inbounds nuw i8, ptr %0, i64 20
  br label %6

._crit_edge:                                      ; preds = %opt_free_elem.exit, %3
  tail call void @av_freep(ptr noundef %1) #18
  store i32 0, ptr %2, align 4, !tbaa !26
  ret void

6:                                                ; preds = %.lr.ph, %opt_free_elem.exit
  %indvars.iv = phi i64 [ 0, %.lr.ph ], [ %indvars.iv.next, %opt_free_elem.exit ]
  %7 = load i32, ptr %5, align 4, !tbaa !18
  %8 = load ptr, ptr %1, align 8, !tbaa !19
  %9 = and i32 %7, -65537
  %10 = zext i32 %9 to i64
  %11 = getelementptr inbounds nuw [21 x %struct.anon], ptr @opt_type_desc, i64 0, i64 %10
  %12 = load i64, ptr %11, align 16, !tbaa !30
  %13 = mul i64 %12, %indvars.iv
  %14 = getelementptr inbounds nuw i8, ptr %8, i64 %13
  switch i32 %9, label %opt_free_elem.exit [
    i32 6, label %15
    i32 8, label %15
    i32 9, label %16
    i32 19, label %17
  ]

15:                                               ; preds = %6, %6
  tail call void @av_freep(ptr noundef %14) #18
  br label %opt_free_elem.exit

16:                                               ; preds = %6
  tail call void @av_dict_free(ptr noundef %14) #18
  br label %opt_free_elem.exit

17:                                               ; preds = %6
  tail call void @av_channel_layout_uninit(ptr noundef %14) #18
  br label %opt_free_elem.exit

opt_free_elem.exit:                               ; preds = %6, %15, %16, %17
  %indvars.iv.next = add nuw nsw i64 %indvars.iv, 1
  %18 = load i32, ptr %2, align 4, !tbaa !26
  %19 = zext i32 %18 to i64
  %20 = icmp samesign ult i64 %indvars.iv.next, %19
  br i1 %20, label %6, label %._crit_edge, !llvm.loop !38
}